ccopy_reg
_reconstructor
p1
(cpatch_level.main
feature_vector_descriptor
p2
c__builtin__
object
p3
NtRp4
(dp5
S'_feature_vector_descriptor__sift_cell_size'
p6
I15
sS'_feature_vector_descriptor__y_size'
p7
I75
sS'_feature_vector_descriptor__n_classes'
p8
I1500
sS'_feature_vector_descriptor__x_step_size'
p9
I15
sS'_feature_vector_descriptor__x_size'
p10
I360
sS'_feature_vector_descriptor__shape'
p11
(I216
I112
tp12
sS'_feature_vector_descriptor__y_step_size'
p13
I15
sb.