ccopy_reg
_reconstructor
p1
(cpatch_level.main
feature_vector_descriptor
p2
c__builtin__
object
p3
NtRp4
(dp5
S'_feature_vector_descriptor__sift_cell_size'
p6
I15
sS'_feature_vector_descriptor__y_size'
p7
I75
sS'_feature_vector_descriptor__n_classes'
p8
I100
sS'_feature_vector_descriptor__x_step_size'
p9
I20
sS'_feature_vector_descriptor__x_size'
p10
I150
sS'_feature_vector_descriptor__shape'
p11
(I162
I95
tp12
sS'_feature_vector_descriptor__y_step_size'
p13
I20
sb.