ccopy_reg
_reconstructor
p1
(cpatch_level.main
feature_vector_descriptor
p2
c__builtin__
object
p3
NtRp4
(dp5
S'_feature_vector_descriptor__y_size'
p6
I79
sS'_feature_vector_descriptor__n_classes'
p7
I100
sS'_feature_vector_descriptor__x_step_size'
p8
I10
sS'_feature_vector_descriptor__x_size'
p9
I163
sS'_feature_vector_descriptor__shape'
p10
(I324
I188
tp11
sS'_feature_vector_descriptor__y_step_size'
p12
I10
sb.