ccopy_reg
_reconstructor
p1
(cpatch_level.main
feature_vector_descriptor
p2
c__builtin__
object
p3
NtRp4
(dp5
S'_feature_vector_descriptor__y_size'
p6
I75
sS'_feature_vector_descriptor__n_classes'
p7
I4000
sS'_feature_vector_descriptor__x_step_size'
p8
I15
sS'_feature_vector_descriptor__x_size'
p9
I400
sS'_feature_vector_descriptor__shape'
p10
(I216
I110
tp11
sS'_feature_vector_descriptor__y_step_size'
p12
I15
sb.